; Function Attrs: null_pointer_is_valid sspstrong uwtable
define internal noundef zeroext i1 @ssi_0f_2(ptr noundef %0, ptr noundef %1, ptr readnone captures(none) %2, i32 noundef %3, i32 noundef %4, i32 %5) #0 {
  %7 = icmp eq i32 %3, 3
  %8 = icmp eq i32 %4, 0
  %or.cond = and i1 %7, %8
  br i1 %or.cond, label %.sink.split, label %9

9:                                                ; preds = %6
  %10 = add i32 %4, -1
  %or.cond3 = icmp ult i32 %10, 2
  %or.cond12 = and i1 %7, %or.cond3
  br i1 %or.cond12, label %.sink.split, label %13

.sink.split:                                      ; preds = %9, %6
  %hf_ipmi_se_0f_extension_code_progress.sink = phi ptr [ @hf_ipmi_se_0f_extension_code_err, %6 ], [ @hf_ipmi_se_0f_extension_code_progress, %9 ]
  %11 = load i32, ptr %hf_ipmi_se_0f_extension_code_progress.sink, align 4
  %12 = tail call ptr @proto_tree_add_item(ptr noundef %0, i32 noundef %11, ptr noundef %1, i32 noundef 0, i32 noundef 1, i32 noundef -2147483648)
  br label %13

13:                                               ; preds = %.sink.split, %9
  %.0 = phi i1 [ false, %9 ], [ true, %.sink.split ]
  ret i1 %.0
}